; Function Attrs: nounwind uwtable
define internal fastcc noalias nonnull ptr @_init_l___private_Lean_Elab_Tactic_Simpa_0__Lean_Elab_Tactic_Simpa_reprUseImplicitLambdaResult____x40_Lean_Elab_Tactic_Simpa___hyg_51____closed__10() unnamed_addr #1 {
  %1 = load ptr, ptr @l___private_Lean_Elab_Tactic_Simpa_0__Lean_Elab_Tactic_Simpa_reprUseImplicitLambdaResult____x40_Lean_Elab_Tactic_Simpa___hyg_51____closed__9, align 8, !tbaa !4
  tail call void @lean_inc_heartbeat() #5
  %2 = tail call noalias ptr @mi_malloc_small(i64 noundef 16) #5
  %3 = icmp eq ptr %2, null
  br i1 %3, label %4, label %lean_alloc_ctor.exit

4:                                                ; preds = %0
  tail call void @lean_internal_panic_out_of_memory() #6
  unreachable

lean_alloc_ctor.exit:                             ; preds = %0
  %5 = getelementptr inbounds nuw i8, ptr %2, i64 4
  store i32 1, ptr %2, align 4, !tbaa !8
  store i32 50397200, ptr %5, align 4
  %6 = getelementptr inbounds nuw i8, ptr %2, i64 8
  store ptr %1, ptr %6, align 8, !tbaa !4
  ret ptr %2
}